target datalayout = "e-m:e-p270:32:32-p271:32:32-p272:64:64-i64:64-i128:128-f80:128-n8:16:32:64-S128"
target triple = "x86_64-pc-linux-gnu"

%struct.GVJ_s = type { ptr, ptr, ptr, ptr, ptr, ptr, i32, ptr, ptr, ptr, ptr, i64, i64, ptr, i32, %struct.gvplugin_active_render_s, %struct.gvplugin_active_device_s, %struct.gvplugin_active_loadimage_t, ptr, %struct.pointf_s, i8, ptr, i32, ptr, i8, ptr, i32, i32, i32, %struct.point, %struct.point, %struct.point, %struct.point, %struct.point, i32, %struct.boxf, %struct.pointf_s, %struct.boxf, %struct.boxf, %struct.pointf_s, %struct.pointf_s, double, i32, %struct.pointf_s, %struct.boxf, %struct.pointf_s, %struct.pointf_s, i32, i32, %struct.box, %struct.box, %struct.pointf_s, %struct.pointf_s, %struct.pointf_s, i8, i8, i8, i8, i8, i8, %struct.pointf_s, %struct.pointf_s, ptr, ptr, ptr, ptr, ptr, ptr, i64, ptr }
%struct.gvplugin_active_render_s = type { ptr, i32, ptr, ptr }
%struct.gvplugin_active_device_s = type { ptr, i32, ptr, ptr }
%struct.gvplugin_active_loadimage_t = type { ptr, i32, ptr }
%struct.point = type { i32, i32 }
%struct.boxf = type { %struct.pointf_s, %struct.pointf_s }
%struct.box = type { %struct.point, %struct.point }
%struct.pointf_s = type { double, double }
%struct.gvrender_engine_s = type { ptr, ptr, ptr, ptr, ptr, ptr, ptr, ptr, ptr, ptr, ptr, ptr, ptr, ptr, ptr, ptr, ptr, ptr, ptr, ptr, ptr, ptr, ptr, ptr, ptr, ptr, ptr, ptr, ptr, ptr }

; Function Attrs: nounwind uwtable
define void @gvrender_begin_page(ptr noundef %0) #0 {
  %2 = alloca ptr, align 8
  %3 = alloca ptr, align 8
  store ptr %0, ptr %2, align 8, !tbaa !3
  call void @llvm.lifetime.start.p0(i64 8, ptr %3) #15
  %4 = load ptr, ptr %2, align 8, !tbaa !3
  %5 = getelementptr inbounds nuw %struct.GVJ_s, ptr %4, i32 0, i32 15
  %6 = getelementptr inbounds nuw %struct.gvplugin_active_render_s, ptr %5, i32 0, i32 0
  %7 = load ptr, ptr %6, align 8, !tbaa !51
  store ptr %7, ptr %3, align 8, !tbaa !58
  %8 = load ptr, ptr %3, align 8, !tbaa !58
  %9 = icmp ne ptr %8, null
  br i1 %9, label %10, label %21

10:                                               ; preds = %1
  %11 = load ptr, ptr %3, align 8, !tbaa !58
  %12 = getelementptr inbounds nuw %struct.gvrender_engine_s, ptr %11, i32 0, i32 6
  %13 = load ptr, ptr %12, align 8, !tbaa !92
  %14 = icmp ne ptr %13, null
  br i1 %14, label %15, label %20

15:                                               ; preds = %10
  %16 = load ptr, ptr %3, align 8, !tbaa !58
  %17 = getelementptr inbounds nuw %struct.gvrender_engine_s, ptr %16, i32 0, i32 6
  %18 = load ptr, ptr %17, align 8, !tbaa !92
  %19 = load ptr, ptr %2, align 8, !tbaa !3
  call void %18(ptr noundef %19)
  br label %20

20:                                               ; preds = %15, %10
  br label %21

21:                                               ; preds = %20, %1
  call void @llvm.lifetime.end.p0(i64 8, ptr %3) #15
  ret void
}